target datalayout = "e-m:e-p270:32:32-p271:32:32-p272:64:64-i64:64-i128:128-f80:128-n8:16:32:64-S128"
target triple = "x86_64-pc-linux-gnu"

%union.pthread_mutex_t = type { %struct.__pthread_mutex_s }
%struct.__pthread_mutex_s = type { i32, i32, i32, i32, i32, i16, i16, %struct.__pthread_internal_list }
%struct.__pthread_internal_list = type { ptr, ptr }
%struct.pmix_tma = type { ptr, ptr, ptr, ptr, ptr, ptr, ptr, ptr }
%struct.pmix_mca_base_framework_t = type { ptr, ptr, ptr, ptr, ptr, ptr, i32, i32, ptr, ptr, i32, i32, %struct.pmix_list_t, %struct.pmix_list_t }
%struct.pmix_list_t = type { %struct.pmix_object_t, %struct.pmix_list_item_t, i64 }
%struct.pmix_object_t = type { %union.pthread_mutex_t, ptr, i32, %struct.pmix_tma }
%struct.pmix_list_item_t = type { %struct.pmix_object_t, ptr, ptr, i32 }

@util_initialized = internal global i8 0, align 1
@pmix_pinstalldirs_base_framework = external global %struct.pmix_mca_base_framework_t, align 8
@stderr = external global ptr, align 8
@.str.4 = private unnamed_addr constant [112 x i8] c"pmix_pinstalldirs_base_open() failed -- process will likely abort (%s:%d, returned %d instead of PMIX_SUCCESS)\0A\00", align 1
@.str.5 = private unnamed_addr constant [20 x i8] c"runtime/pmix_init.c\00", align 1
@.str.6 = private unnamed_addr constant [112 x i8] c"pmix_pinstalldirs_base_init() failed -- process will likely abort (%s:%d, returned %d instead of PMIX_SUCCESS)\0A\00", align 1
@.str.7 = private unnamed_addr constant [36 x i8] c"pmix_util_keyval_parse_init failed\0A\00", align 1
@.str.8 = private unnamed_addr constant [26 x i8] c"mca_base_var_init failed\0A\00", align 1
@.str.9 = private unnamed_addr constant [27 x i8] c"pmix_mca_base_open failed\0A\00", align 1
@.str.10 = private unnamed_addr constant [22 x i8] c"pmix_net_init failed\0A\00", align 1
@pmix_pif_base_framework = external global %struct.pmix_mca_base_framework_t, align 8
@.str.11 = private unnamed_addr constant [27 x i8] c"pmix_pif_base_open failed\0A\00", align 1

; Function Attrs: nounwind uwtable
define i32 @pmix_init_util(ptr noundef %0, i64 noundef %1, ptr noundef %2) #0 {
  %4 = alloca i32, align 4
  %5 = alloca ptr, align 8
  %6 = alloca i64, align 8
  %7 = alloca ptr, align 8
  %8 = alloca i32, align 4
  %9 = alloca i32, align 4
  store ptr %0, ptr %5, align 8, !tbaa !9
  store i64 %1, ptr %6, align 8, !tbaa !11
  store ptr %2, ptr %7, align 8, !tbaa !3
  call void @llvm.lifetime.start.p0(i64 4, ptr %8) #12
  %10 = load i8, ptr @util_initialized, align 1, !tbaa !13, !range !15, !noundef !16
  %11 = trunc i8 %10 to i1
  br i1 %11, label %12, label %13

12:                                               ; preds = %3
  store i32 0, ptr %4, align 4
  store i32 1, ptr %9, align 4
  br label %74

13:                                               ; preds = %3
  store i8 1, ptr @util_initialized, align 1, !tbaa !13
  %14 = call zeroext i1 @pmix_output_init()
  br i1 %14, label %16, label %15

15:                                               ; preds = %13
  store i32 -1, ptr %4, align 4
  store i32 1, ptr %9, align 4
  br label %74

16:                                               ; preds = %13
  %17 = call i32 @pmix_mca_base_framework_open(ptr noundef @pmix_pinstalldirs_base_framework, i32 noundef 0)
  store i32 %17, ptr %8, align 4, !tbaa !17
  %18 = load i32, ptr %8, align 4, !tbaa !17
  %19 = icmp ne i32 0, %18
  br i1 %19, label %20, label %25

20:                                               ; preds = %16
  %21 = load ptr, ptr @stderr, align 8, !tbaa !19
  %22 = load i32, ptr %8, align 4, !tbaa !17
  %23 = call i32 (ptr, ptr, ...) @fprintf(ptr noundef %21, ptr noundef @.str.4, ptr noundef @.str.5, i32 noundef 166, i32 noundef %22) #12
  %24 = load i32, ptr %8, align 4, !tbaa !17
  store i32 %24, ptr %4, align 4
  store i32 1, ptr %9, align 4
  br label %74

25:                                               ; preds = %16
  %26 = load ptr, ptr %5, align 8, !tbaa !9
  %27 = load i64, ptr %6, align 8, !tbaa !11
  %28 = call i32 @pmix_pinstall_dirs_base_init(ptr noundef %26, i64 noundef %27)
  store i32 %28, ptr %8, align 4, !tbaa !17
  %29 = icmp ne i32 0, %28
  br i1 %29, label %30, label %35

30:                                               ; preds = %25
  %31 = load ptr, ptr @stderr, align 8, !tbaa !19
  %32 = load i32, ptr %8, align 4, !tbaa !17
  %33 = call i32 (ptr, ptr, ...) @fprintf(ptr noundef %31, ptr noundef @.str.6, ptr noundef @.str.5, i32 noundef 173, i32 noundef %32) #12
  %34 = load i32, ptr %8, align 4, !tbaa !17
  store i32 %34, ptr %4, align 4
  store i32 1, ptr %9, align 4
  br label %74

35:                                               ; preds = %25
  %36 = call i32 @pmix_show_help_init(ptr noundef null)
  %37 = call i32 @pmix_util_keyval_parse_init()
  store i32 %37, ptr %8, align 4, !tbaa !17
  %38 = icmp ne i32 0, %37
  br i1 %38, label %39, label %43

39:                                               ; preds = %35
  %40 = load ptr, ptr @stderr, align 8, !tbaa !19
  %41 = call i32 (ptr, ptr, ...) @fprintf(ptr noundef %40, ptr noundef @.str.7) #12
  %42 = load i32, ptr %8, align 4, !tbaa !17
  store i32 %42, ptr %4, align 4
  store i32 1, ptr %9, align 4
  br label %74

43:                                               ; preds = %35
  %44 = call i32 @pmix_mca_base_var_init()
  store i32 %44, ptr %8, align 4, !tbaa !17
  %45 = icmp ne i32 0, %44
  br i1 %45, label %46, label %50

46:                                               ; preds = %43
  %47 = load ptr, ptr @stderr, align 8, !tbaa !19
  %48 = call i32 (ptr, ptr, ...) @fprintf(ptr noundef %47, ptr noundef @.str.8) #12
  %49 = load i32, ptr %8, align 4, !tbaa !17
  store i32 %49, ptr %4, align 4
  store i32 1, ptr %9, align 4
  br label %74

50:                                               ; preds = %43
  %51 = load ptr, ptr %7, align 8, !tbaa !3
  %52 = call i32 @pmix_mca_base_open(ptr noundef %51)
  store i32 %52, ptr %8, align 4, !tbaa !17
  %53 = icmp ne i32 0, %52
  br i1 %53, label %54, label %58

54:                                               ; preds = %50
  %55 = load ptr, ptr @stderr, align 8, !tbaa !19
  %56 = call i32 (ptr, ptr, ...) @fprintf(ptr noundef %55, ptr noundef @.str.9) #12
  %57 = load i32, ptr %8, align 4, !tbaa !17
  store i32 %57, ptr %4, align 4
  store i32 1, ptr %9, align 4
  br label %74

58:                                               ; preds = %50
  %59 = call i32 @pmix_net_init()
  store i32 %59, ptr %8, align 4, !tbaa !17
  %60 = icmp ne i32 0, %59
  br i1 %60, label %61, label %65

61:                                               ; preds = %58
  %62 = load ptr, ptr @stderr, align 8, !tbaa !19
  %63 = call i32 (ptr, ptr, ...) @fprintf(ptr noundef %62, ptr noundef @.str.10) #12
  %64 = load i32, ptr %8, align 4, !tbaa !17
  store i32 %64, ptr %4, align 4
  store i32 1, ptr %9, align 4
  br label %74

65:                                               ; preds = %58
  %66 = call i32 @pmix_mca_base_framework_open(ptr noundef @pmix_pif_base_framework, i32 noundef 0)
  store i32 %66, ptr %8, align 4, !tbaa !17
  %67 = load i32, ptr %8, align 4, !tbaa !17
  %68 = icmp ne i32 0, %67
  br i1 %68, label %69, label %73

69:                                               ; preds = %65
  %70 = load ptr, ptr @stderr, align 8, !tbaa !19
  %71 = call i32 (ptr, ptr, ...) @fprintf(ptr noundef %70, ptr noundef @.str.11) #12
  %72 = load i32, ptr %8, align 4, !tbaa !17
  store i32 %72, ptr %4, align 4
  store i32 1, ptr %9, align 4
  br label %74

73:                                               ; preds = %65
  store i32 0, ptr %4, align 4
  store i32 1, ptr %9, align 4
  br label %74

74:                                               ; preds = %73, %69, %61, %54, %46, %39, %30, %20, %15, %12
  call void @llvm.lifetime.end.p0(i64 4, ptr %8) #12
  %75 = load i32, ptr %4, align 4
  ret i32 %75
}