; Function Attrs: nounwind uwtable
define i32 @pmix_init_util(ptr noundef %0, i64 noundef %1, ptr noundef %2) local_unnamed_addr #0 {
  %.b21 = load i1, ptr @util_initialized, align 1
  br i1 %.b21, label %42, label %4

4:                                                ; preds = %3
  store i1 true, ptr @util_initialized, align 1
  %5 = tail call zeroext i1 @pmix_output_init() #16
  br i1 %5, label %6, label %42

6:                                                ; preds = %4
  %7 = tail call i32 @pmix_mca_base_framework_open(ptr noundef nonnull @pmix_pinstalldirs_base_framework, i32 noundef 0) #16
  %.not = icmp eq i32 %7, 0
  br i1 %.not, label %11, label %8

8:                                                ; preds = %6
  %9 = load ptr, ptr @stderr, align 8, !tbaa !9
  %10 = tail call i32 (ptr, ptr, ...) @fprintf(ptr noundef %9, ptr noundef nonnull @.str.4, ptr noundef nonnull @.str.5, i32 noundef 166, i32 noundef %7) #18
  br label %42

11:                                               ; preds = %6
  %12 = tail call i32 @pmix_pinstall_dirs_base_init(ptr noundef %0, i64 noundef %1) #16
  %.not22 = icmp eq i32 %12, 0
  br i1 %.not22, label %16, label %13

13:                                               ; preds = %11
  %14 = load ptr, ptr @stderr, align 8, !tbaa !9
  %15 = tail call i32 (ptr, ptr, ...) @fprintf(ptr noundef %14, ptr noundef nonnull @.str.6, ptr noundef nonnull @.str.5, i32 noundef 173, i32 noundef %12) #18
  br label %42

16:                                               ; preds = %11
  %17 = tail call i32 @pmix_show_help_init(ptr noundef null) #16
  %18 = tail call i32 @pmix_util_keyval_parse_init() #16
  %.not23 = icmp eq i32 %18, 0
  br i1 %.not23, label %22, label %19

19:                                               ; preds = %16
  %20 = load ptr, ptr @stderr, align 8, !tbaa !9
  %21 = tail call i64 @fwrite(ptr nonnull @.str.7, i64 35, i64 1, ptr %20) #19
  br label %42

22:                                               ; preds = %16
  %23 = tail call i32 @pmix_mca_base_var_init() #16
  %.not24 = icmp eq i32 %23, 0
  br i1 %.not24, label %27, label %24

24:                                               ; preds = %22
  %25 = load ptr, ptr @stderr, align 8, !tbaa !9
  %26 = tail call i64 @fwrite(ptr nonnull @.str.8, i64 25, i64 1, ptr %25) #19
  br label %42

27:                                               ; preds = %22
  %28 = tail call i32 @pmix_mca_base_open(ptr noundef %2) #16
  %.not25 = icmp eq i32 %28, 0
  br i1 %.not25, label %32, label %29

29:                                               ; preds = %27
  %30 = load ptr, ptr @stderr, align 8, !tbaa !9
  %31 = tail call i64 @fwrite(ptr nonnull @.str.9, i64 26, i64 1, ptr %30) #19
  br label %42

32:                                               ; preds = %27
  %33 = tail call i32 @pmix_net_init() #16
  %.not26 = icmp eq i32 %33, 0
  br i1 %.not26, label %37, label %34

34:                                               ; preds = %32
  %35 = load ptr, ptr @stderr, align 8, !tbaa !9
  %36 = tail call i64 @fwrite(ptr nonnull @.str.10, i64 21, i64 1, ptr %35) #19
  br label %42

37:                                               ; preds = %32
  %38 = tail call i32 @pmix_mca_base_framework_open(ptr noundef nonnull @pmix_pif_base_framework, i32 noundef 0) #16
  %.not27 = icmp eq i32 %38, 0
  br i1 %.not27, label %42, label %39

39:                                               ; preds = %37
  %40 = load ptr, ptr @stderr, align 8, !tbaa !9
  %41 = tail call i64 @fwrite(ptr nonnull @.str.11, i64 26, i64 1, ptr %40) #19
  br label %42

42:                                               ; preds = %37, %4, %3, %39, %34, %29, %24, %19, %13, %8
  %.0 = phi i32 [ %7, %8 ], [ %12, %13 ], [ %18, %19 ], [ %23, %24 ], [ %28, %29 ], [ %33, %34 ], [ %38, %39 ], [ 0, %3 ], [ -1, %4 ], [ 0, %37 ]
  ret i32 %.0
}